target datalayout = "e-m:e-p270:32:32-p271:32:32-p272:64:64-i64:64-i128:128-f80:128-n8:16:32:64-S128"
target triple = "x86_64-pc-linux-gnu"

%struct.crypto_ex_data_st = type { ptr, ptr }
%struct.x509_store_ctx_st = type { ptr, ptr, ptr, ptr, ptr, ptr, ptr, ptr, ptr, ptr, ptr, ptr, ptr, ptr, ptr, ptr, ptr, ptr, i32, i32, ptr, ptr, i32, i32, i32, ptr, ptr, ptr, i32, i32, ptr, %struct.crypto_ex_data_st, ptr, i32, ptr, ptr, ptr }

; Function Attrs: nounwind uwtable
define internal i32 @get1_best_issuer_other_sk(ptr noundef %0, ptr noundef %1, ptr noundef %2) #0 {
  %4 = alloca i32, align 4
  %5 = alloca ptr, align 8
  %6 = alloca ptr, align 8
  %7 = alloca ptr, align 8
  store ptr %0, ptr %5, align 8, !tbaa !63
  store ptr %1, ptr %6, align 8, !tbaa !40
  store ptr %2, ptr %7, align 8, !tbaa !3
  %8 = load ptr, ptr %6, align 8, !tbaa !40
  %9 = load ptr, ptr %6, align 8, !tbaa !40
  %10 = getelementptr inbounds nuw %struct.x509_store_ctx_st, ptr %9, i32 0, i32 5
  %11 = load ptr, ptr %10, align 8, !tbaa !134
  %12 = load ptr, ptr %7, align 8, !tbaa !3
  %13 = call ptr @get0_best_issuer_sk(ptr noundef %8, i32 noundef 0, i32 noundef 1, ptr noundef %11, ptr noundef %12)
  %14 = load ptr, ptr %5, align 8, !tbaa !63
  store ptr %13, ptr %14, align 8, !tbaa !3
  %15 = load ptr, ptr %5, align 8, !tbaa !63
  %16 = load ptr, ptr %15, align 8, !tbaa !3
  %17 = icmp eq ptr %16, null
  br i1 %17, label %18, label %19

18:                                               ; preds = %3
  store i32 0, ptr %4, align 4
  br label %25

19:                                               ; preds = %3
  %20 = load ptr, ptr %5, align 8, !tbaa !63
  %21 = load ptr, ptr %20, align 8, !tbaa !3
  %22 = call i32 @X509_up_ref(ptr noundef %21)
  %23 = icmp ne i32 %22, 0
  %24 = select i1 %23, i32 1, i32 -1
  store i32 %24, ptr %4, align 4
  br label %25

25:                                               ; preds = %19, %18
  %26 = load i32, ptr %4, align 4
  ret i32 %26
}