; Function Attrs: nounwind uwtable
define internal range(i32 -1, 2) i32 @get1_best_issuer_other_sk(ptr noundef writeonly captures(none) initializes((0, 8)) %0, ptr noundef %1, ptr noundef %2) #0 {
  %4 = getelementptr inbounds nuw i8, ptr %1, i64 40
  %5 = load ptr, ptr %4, align 8, !tbaa !132
  %6 = tail call fastcc ptr @get0_best_issuer_sk(ptr noundef %1, i32 noundef 1, ptr noundef %5, ptr noundef %2)
  store ptr %6, ptr %0, align 8, !tbaa !90
  %7 = icmp eq ptr %6, null
  br i1 %7, label %11, label %8

8:                                                ; preds = %3
  %9 = tail call i32 @X509_up_ref(ptr noundef nonnull %6) #10
  %.not = icmp eq i32 %9, 0
  %10 = select i1 %.not, i32 -1, i32 1
  br label %11

11:                                               ; preds = %3, %8
  %.0 = phi i32 [ %10, %8 ], [ 0, %3 ]
  ret i32 %.0
}